target datalayout = "e-m:e-p270:32:32-p271:32:32-p272:64:64-i64:64-i128:128-f80:128-n8:16:32:64-S128"
target triple = "x86_64-pc-linux-gnu"

%class.SpanSubjectToDiscoveryClosure = type { %class.BoolObjectClosure, %class.MemRegion }
%class.BoolObjectClosure = type { ptr }
%class.MemRegion = type { ptr, i64 }
%struct.NarrowPtrStruct = type { ptr, i32, i8 }
%class.PSYoungGen = type { ptr, %class.MemRegion, ptr, ptr, ptr, ptr, i64, i64, ptr, ptr, ptr, ptr }
%class.MutableSpace = type { ptr, %class.MemRegion, i64, ptr, ptr, ptr }

@_ZN10PSScavenge22_span_based_discovererE = hidden global %class.SpanSubjectToDiscoveryClosure zeroinitializer, align 8
@_ZN10PSScavenge14_ref_processorE = hidden global ptr null, align 8
@_ZN10PSScavenge11_card_tableE = hidden global ptr null, align 8
@_ZN10PSScavenge19_tenuring_thresholdE = hidden global i32 0, align 4
@_ZN10PSScavenge26_young_generation_boundaryE = hidden global ptr null, align 8
@_ZN10PSScavenge37_young_generation_boundary_compressedE = hidden global i64 0, align 8
@_ZN10PSScavenge9_countersE = hidden global ptr null, align 8
@_ZN10PSScavenge17_is_alive_closureE = hidden global { ptr } { ptr getelementptr inbounds inrange(-16, 8) ({ [3 x ptr] }, ptr @_ZTV16PSIsAliveClosure, i32 0, i32 0, i32 2) }, align 8
@UseAdaptiveSizePolicy = external global i8, align 1
@MaxTenuringThreshold = external global i32, align 4
@UseCompressedOops = external global i8, align 1
@AlwaysTenure = external global i8, align 1
@NeverTenure = external global i8, align 1
@InitialTenuringThreshold = external global i32, align 4
@ParallelGCThreads = external global i32, align 4
@.str.22 = private unnamed_addr constant [33 x i8] c"Parallel young collection pauses\00", align 1
@_ZN8Universe14_collectedHeapE = external global ptr, align 8
@_ZN20ParallelScavengeHeap10_young_genE = external global ptr, align 8
@_ZN20ParallelScavengeHeap8_old_genE = external global ptr, align 8
@_ZN14CompressedOops11_narrow_oopE = external global %struct.NarrowPtrStruct, align 8

; Function Attrs: mustprogress nounwind uwtable
define linkonce_odr hidden noundef i32 @_ZN14CompressedOops15narrow_oop_castImEE9narrowOopT_(i64 noundef %0) #1 comdat align 2 {
  %2 = alloca i64, align 8
  %3 = alloca i32, align 4
  store i64 %0, ptr %2, align 8
  %4 = load i64, ptr %2, align 8
  %5 = trunc i64 %4 to i32
  store i32 %5, ptr %3, align 4
  %6 = load i32, ptr %3, align 4
  ret i32 %6
}

; Function Attrs: mustprogress nounwind uwtable
define linkonce_odr hidden noundef i32 @_ZN14CompressedOops5shiftEv() #1 comdat align 2 {
  %1 = load i32, ptr getelementptr inbounds (%struct.NarrowPtrStruct, ptr @_ZN14CompressedOops11_narrow_oopE, i32 0, i32 1), align 8
  ret i32 %1
}

; Function Attrs: mustprogress nounwind uwtable
define linkonce_odr hidden noundef i64 @_Z13pointer_deltaPVKvS0_m(ptr noundef %0, ptr noundef %1, i64 noundef %2) #1 comdat {
  %4 = alloca ptr, align 8
  %5 = alloca ptr, align 8
  %6 = alloca i64, align 8
  store ptr %0, ptr %4, align 8
  store ptr %1, ptr %5, align 8
  store i64 %2, ptr %6, align 8
  %7 = load ptr, ptr %4, align 8
  %8 = ptrtoint ptr %7 to i64
  %9 = load ptr, ptr %5, align 8
  %10 = ptrtoint ptr %9 to i64
  %11 = sub i64 %8, %10
  %12 = load i64, ptr %6, align 8
  %13 = udiv i64 %11, %12
  ret i64 %13
}

; Function Attrs: mustprogress nounwind uwtable
define linkonce_odr hidden noundef ptr @_ZN14CompressedOops4baseEv() #1 comdat align 2 {
  %1 = load ptr, ptr @_ZN14CompressedOops11_narrow_oopE, align 8
  ret ptr %1
}

; Function Attrs: mustprogress nounwind uwtable
define linkonce_odr hidden noundef i32 @_ZN14CompressedOops15encode_not_nullEP7oopDesc(ptr noundef %0) #1 comdat align 2 {
  %2 = alloca ptr, align 8
  %3 = alloca i64, align 8
  %4 = alloca i32, align 4
  store ptr %0, ptr %2, align 8
  %5 = load ptr, ptr %2, align 8
  %6 = call noundef ptr @_ZN14CompressedOops4baseEv()
  %7 = call noundef i64 @_Z13pointer_deltaPVKvS0_m(ptr noundef %5, ptr noundef %6, i64 noundef 1)
  store i64 %7, ptr %3, align 8
  %8 = load i64, ptr %3, align 8
  %9 = call noundef i32 @_ZN14CompressedOops5shiftEv()
  %10 = zext i32 %9 to i64
  %11 = lshr i64 %8, %10
  %12 = call noundef i32 @_ZN14CompressedOops15narrow_oop_castImEE9narrowOopT_(i64 noundef %11)
  store i32 %12, ptr %4, align 4
  %13 = load i32, ptr %4, align 4
  ret i32 %13
}

; Function Attrs: mustprogress nounwind uwtable
define linkonce_odr hidden noundef zeroext i1 @_ZN14CompressedOops7is_nullEP7oopDesc(ptr noundef %0) #1 comdat align 2 {
  %2 = alloca ptr, align 8
  store ptr %0, ptr %2, align 8
  %3 = load ptr, ptr %2, align 8
  %4 = icmp eq ptr %3, null
  ret i1 %4
}

; Function Attrs: mustprogress nounwind uwtable
define linkonce_odr hidden noundef ptr @_ZN8Universe4heapEv() #1 comdat align 2 {
  %1 = load ptr, ptr @_ZN8Universe14_collectedHeapE, align 8
  ret ptr %1
}

; Function Attrs: mustprogress nounwind uwtable
define linkonce_odr hidden noundef i32 @_ZN14CompressedOops6encodeEP7oopDesc(ptr noundef %0) #1 comdat align 2 {
  %2 = alloca ptr, align 8
  store ptr %0, ptr %2, align 8
  %3 = load ptr, ptr %2, align 8
  %4 = call noundef zeroext i1 @_ZN14CompressedOops7is_nullEP7oopDesc(ptr noundef %3)
  br i1 %4, label %5, label %6

5:                                                ; preds = %1
  br label %9

6:                                                ; preds = %1
  %7 = load ptr, ptr %2, align 8
  %8 = call noundef i32 @_ZN14CompressedOops15encode_not_nullEP7oopDesc(ptr noundef %7)
  br label %9

9:                                                ; preds = %6, %5
  %10 = phi i32 [ 0, %5 ], [ %8, %6 ]
  ret i32 %10
}

; Function Attrs: mustprogress nounwind uwtable
define linkonce_odr hidden noundef ptr @_Z11cast_to_oopIPP12HeapWordImplEP7oopDescT_(ptr noundef %0) #1 comdat {
  %2 = alloca ptr, align 8
  store ptr %0, ptr %2, align 8
  %3 = load ptr, ptr %2, align 8
  ret ptr %3
}

; Function Attrs: mustprogress nounwind uwtable
define linkonce_odr hidden noundef ptr @_ZN13CollectedHeap10named_heapI20ParallelScavengeHeapEEPT_NS_4NameE(i32 noundef %0) #1 comdat align 2 {
  %2 = alloca i32, align 4
  %3 = alloca ptr, align 8
  store i32 %0, ptr %2, align 4
  %4 = call noundef ptr @_ZN8Universe4heapEv()
  store ptr %4, ptr %3, align 8
  %5 = load ptr, ptr %3, align 8
  ret ptr %5
}

; Function Attrs: mustprogress nounwind uwtable
define linkonce_odr hidden void @_ZN29SpanSubjectToDiscoveryClosure8set_spanE9MemRegion(ptr noundef nonnull align 8 dereferenceable(24) %0, ptr %1, i64 %2) #1 comdat align 2 {
  %4 = alloca %class.MemRegion, align 8
  %5 = alloca ptr, align 8
  %6 = getelementptr inbounds { ptr, i64 }, ptr %4, i32 0, i32 0
  store ptr %1, ptr %6, align 8
  %7 = getelementptr inbounds { ptr, i64 }, ptr %4, i32 0, i32 1
  store i64 %2, ptr %7, align 8
  store ptr %0, ptr %5, align 8
  %8 = load ptr, ptr %5, align 8
  %9 = getelementptr inbounds %class.SpanSubjectToDiscoveryClosure, ptr %8, i32 0, i32 1
  call void @llvm.memcpy.p0.p0.i64(ptr align 8 %9, ptr align 8 %4, i64 16, i1 false)
  ret void
}

; Function Attrs: mustprogress nounwind uwtable
define linkonce_odr hidden { ptr, i64 } @_ZNK10PSYoungGen8reservedEv(ptr noundef nonnull align 8 dereferenceable(104) %0) #1 comdat align 2 {
  %2 = alloca %class.MemRegion, align 8
  %3 = alloca ptr, align 8
  store ptr %0, ptr %3, align 8
  %4 = load ptr, ptr %3, align 8
  %5 = getelementptr inbounds %class.PSYoungGen, ptr %4, i32 0, i32 1
  call void @llvm.memcpy.p0.p0.i64(ptr align 8 %2, ptr align 8 %5, i64 16, i1 false)
  %6 = load { ptr, i64 }, ptr %2, align 8
  ret { ptr, i64 } %6
}

; Function Attrs: mustprogress nounwind uwtable
define hidden void @_ZN10PSScavenge29set_young_generation_boundaryEPP12HeapWordImpl(ptr noundef %0) #1 align 2 {
  %2 = alloca ptr, align 8
  store ptr %0, ptr %2, align 8
  %3 = load ptr, ptr %2, align 8
  store ptr %3, ptr @_ZN10PSScavenge26_young_generation_boundaryE, align 8
  %4 = load i8, ptr @UseCompressedOops, align 1
  %5 = trunc i8 %4 to i1
  br i1 %5, label %6, label %11

6:                                                ; preds = %1
  %7 = load ptr, ptr %2, align 8
  %8 = call noundef ptr @_Z11cast_to_oopIPP12HeapWordImplEP7oopDescT_(ptr noundef %7)
  %9 = call noundef i32 @_ZN14CompressedOops6encodeEP7oopDesc(ptr noundef %8)
  %10 = zext i32 %9 to i64
  store i64 %10, ptr @_ZN10PSScavenge37_young_generation_boundary_compressedE, align 8
  br label %11

11:                                               ; preds = %6, %1
  ret void
}

; Function Attrs: mustprogress nounwind uwtable
define linkonce_odr hidden noundef ptr @_ZNK12MutableSpace6bottomEv(ptr noundef nonnull align 8 dereferenceable(56) %0) #1 comdat align 2 {
  %2 = alloca ptr, align 8
  store ptr %0, ptr %2, align 8
  %3 = load ptr, ptr %2, align 8
  %4 = getelementptr inbounds %class.MutableSpace, ptr %3, i32 0, i32 3
  %5 = load ptr, ptr %4, align 8
  ret ptr %5
}

; Function Attrs: mustprogress nounwind uwtable
define linkonce_odr hidden noundef ptr @_ZNK10PSYoungGen10eden_spaceEv(ptr noundef nonnull align 8 dereferenceable(104) %0) #1 comdat align 2 {
  %2 = alloca ptr, align 8
  store ptr %0, ptr %2, align 8
  %3 = load ptr, ptr %2, align 8
  %4 = getelementptr inbounds %class.PSYoungGen, ptr %3, i32 0, i32 3
  %5 = load ptr, ptr %4, align 8
  ret ptr %5
}

; Function Attrs: mustprogress nounwind uwtable
define linkonce_odr hidden noundef ptr @_ZN20ParallelScavengeHeap7old_genEv() #1 comdat align 2 {
  %1 = load ptr, ptr @_ZN20ParallelScavengeHeap8_old_genE, align 8
  ret ptr %1
}

; Function Attrs: mustprogress nounwind uwtable
define linkonce_odr hidden noundef ptr @_ZN20ParallelScavengeHeap9young_genEv() #1 comdat align 2 {
  %1 = load ptr, ptr @_ZN20ParallelScavengeHeap10_young_genE, align 8
  ret ptr %1
}

; Function Attrs: mustprogress nounwind uwtable
define linkonce_odr hidden noundef ptr @_ZN20ParallelScavengeHeap4heapEv() #1 comdat align 2 {
  %1 = call noundef ptr @_ZN13CollectedHeap10named_heapI20ParallelScavengeHeapEEPT_NS_4NameE(i32 noundef 2)
  ret ptr %1
}

; Function Attrs: mustprogress nounwind uwtable
define hidden void @_ZN10PSScavenge10initializeEv() #1 align 2 {
  %1 = alloca i64, align 8
  %2 = alloca i8, align 1
  %3 = alloca i64, align 8
  %4 = alloca i8, align 1
  %5 = alloca i64, align 8
  %6 = alloca i64, align 8
  %7 = alloca ptr, align 8
  %8 = alloca ptr, align 8
  %9 = alloca ptr, align 8
  %10 = alloca %class.MemRegion, align 8
  %11 = load i8, ptr @AlwaysTenure, align 1
  %12 = trunc i8 %11 to i1
  br i1 %12, label %16, label %13

13:                                               ; preds = %0
  %14 = load i8, ptr @NeverTenure, align 1
  %15 = trunc i8 %14 to i1
  br i1 %15, label %16, label %18

16:                                               ; preds = %13, %0
  %17 = load i32, ptr @MaxTenuringThreshold, align 4
  store i32 %17, ptr @_ZN10PSScavenge19_tenuring_thresholdE, align 4
  br label %27

18:                                               ; preds = %13
  %19 = load i8, ptr @UseAdaptiveSizePolicy, align 1
  %20 = trunc i8 %19 to i1
  br i1 %20, label %21, label %23

21:                                               ; preds = %18
  %22 = load i32, ptr @InitialTenuringThreshold, align 4
  br label %25

23:                                               ; preds = %18
  %24 = load i32, ptr @MaxTenuringThreshold, align 4
  br label %25

25:                                               ; preds = %23, %21
  %26 = phi i32 [ %22, %21 ], [ %24, %23 ]
  store i32 %26, ptr @_ZN10PSScavenge19_tenuring_thresholdE, align 4
  br label %27

27:                                               ; preds = %25, %16
  %28 = call noundef ptr @_ZN20ParallelScavengeHeap4heapEv()
  store ptr %28, ptr %7, align 8
  %29 = call noundef ptr @_ZN20ParallelScavengeHeap9young_genEv()
  store ptr %29, ptr %8, align 8
  %30 = call noundef ptr @_ZN20ParallelScavengeHeap7old_genEv()
  store ptr %30, ptr %9, align 8
  %31 = load ptr, ptr %8, align 8
  %32 = call noundef ptr @_ZNK10PSYoungGen10eden_spaceEv(ptr noundef nonnull align 8 dereferenceable(104) %31)
  %33 = call noundef ptr @_ZNK12MutableSpace6bottomEv(ptr noundef nonnull align 8 dereferenceable(56) %32)
  call void @_ZN10PSScavenge29set_young_generation_boundaryEPP12HeapWordImpl(ptr noundef %33)
  %34 = load ptr, ptr %8, align 8
  %35 = call { ptr, i64 } @_ZNK10PSYoungGen8reservedEv(ptr noundef nonnull align 8 dereferenceable(104) %34)
  %36 = getelementptr inbounds { ptr, i64 }, ptr %10, i32 0, i32 0
  %37 = extractvalue { ptr, i64 } %35, 0
  store ptr %37, ptr %36, align 8
  %38 = getelementptr inbounds { ptr, i64 }, ptr %10, i32 0, i32 1
  %39 = extractvalue { ptr, i64 } %35, 1
  store i64 %39, ptr %38, align 8
  %40 = getelementptr inbounds { ptr, i64 }, ptr %10, i32 0, i32 0
  %41 = load ptr, ptr %40, align 8
  %42 = getelementptr inbounds { ptr, i64 }, ptr %10, i32 0, i32 1
  %43 = load i64, ptr %42, align 8
  call void @_ZN29SpanSubjectToDiscoveryClosure8set_spanE9MemRegion(ptr noundef nonnull align 8 dereferenceable(24) @_ZN10PSScavenge22_span_based_discovererE, ptr %41, i64 %43)
  store i64 88, ptr %5, align 8
  %44 = load i64, ptr %5, align 8
  store i64 %44, ptr %3, align 8
  store i8 5, ptr %4, align 1
  %45 = load i64, ptr %3, align 8
  %46 = load i8, ptr %4, align 1
  %47 = call noundef ptr @_Z12AllocateHeapm8MEMFLAGSN17AllocFailStrategy13AllocFailEnumE(i64 noundef %45, i8 noundef zeroext %46, i32 noundef 0) #4
  %48 = load i32, ptr @ParallelGCThreads, align 4
  %49 = load i32, ptr @ParallelGCThreads, align 4
  call void @_ZN18ReferenceProcessorC1EP17BoolObjectClosurejjbS1_(ptr noundef nonnull align 8 dereferenceable(88) %47, ptr noundef @_ZN10PSScavenge22_span_based_discovererE, i32 noundef %48, i32 noundef %49, i1 noundef zeroext false, ptr noundef @_ZN10PSScavenge17_is_alive_closureE)
  store ptr %47, ptr @_ZN10PSScavenge14_ref_processorE, align 8
  %50 = load ptr, ptr %7, align 8
  %51 = call noundef ptr @_ZN20ParallelScavengeHeap10card_tableEv(ptr noundef nonnull align 8 dereferenceable(264) %50)
  store ptr %51, ptr @_ZN10PSScavenge11_card_tableE, align 8
  store i64 40, ptr %6, align 8
  %52 = load i64, ptr %6, align 8
  store i64 %52, ptr %1, align 8
  store i8 5, ptr %2, align 1
  %53 = load i64, ptr %1, align 8
  %54 = load i8, ptr %2, align 1
  %55 = call noundef ptr @_Z12AllocateHeapm8MEMFLAGSN17AllocFailStrategy13AllocFailEnumE(i64 noundef %53, i8 noundef zeroext %54, i32 noundef 0) #4
  call void @_ZN17CollectorCountersC1EPKci(ptr noundef nonnull align 8 dereferenceable(40) %55, ptr noundef @.str.22, i32 noundef 0)
  store ptr %55, ptr @_ZN10PSScavenge9_countersE, align 8
  ret void
}