; Function Attrs: mustprogress nounwind uwtable
define hidden void @_ZN10PSScavenge10initializeEv() local_unnamed_addr #0 align 2 {
  %1 = load i8, ptr @AlwaysTenure, align 1
  %2 = trunc i8 %1 to i1
  br i1 %2, label %6, label %3

3:                                                ; preds = %0
  %4 = load i8, ptr @NeverTenure, align 1
  %5 = trunc i8 %4 to i1
  br i1 %5, label %6, label %8

6:                                                ; preds = %3, %0
  %7 = load i32, ptr @MaxTenuringThreshold, align 4
  br label %14

8:                                                ; preds = %3
  %9 = load i8, ptr @UseAdaptiveSizePolicy, align 1
  %10 = trunc i8 %9 to i1
  %11 = load i32, ptr @InitialTenuringThreshold, align 4
  %12 = load i32, ptr @MaxTenuringThreshold, align 4
  %13 = select i1 %10, i32 %11, i32 %12
  br label %14

14:                                               ; preds = %8, %6
  %storemerge = phi i32 [ %13, %8 ], [ %7, %6 ]
  store i32 %storemerge, ptr @_ZN10PSScavenge19_tenuring_thresholdE, align 4
  %15 = load ptr, ptr @_ZN8Universe14_collectedHeapE, align 8
  %16 = load ptr, ptr @_ZN20ParallelScavengeHeap10_young_genE, align 8
  %17 = getelementptr inbounds i8, ptr %16, i64 32
  %18 = load ptr, ptr %17, align 8
  %19 = getelementptr inbounds i8, ptr %18, i64 32
  %20 = load ptr, ptr %19, align 8
  store ptr %20, ptr @_ZN10PSScavenge26_young_generation_boundaryE, align 8
  %21 = load i8, ptr @UseCompressedOops, align 1
  %22 = trunc i8 %21 to i1
  br i1 %22, label %23, label %_ZN10PSScavenge29set_young_generation_boundaryEPP12HeapWordImpl.exit

23:                                               ; preds = %14
  %24 = icmp eq ptr %20, null
  %25 = load ptr, ptr @_ZN14CompressedOops11_narrow_oopE, align 8
  %26 = ptrtoint ptr %20 to i64
  %27 = ptrtoint ptr %25 to i64
  %28 = sub i64 %26, %27
  %29 = load i32, ptr getelementptr inbounds (i8, ptr @_ZN14CompressedOops11_narrow_oopE, i64 8), align 8
  %30 = zext nneg i32 %29 to i64
  %31 = lshr i64 %28, %30
  %32 = and i64 %31, 4294967295
  %33 = select i1 %24, i64 0, i64 %32
  store i64 %33, ptr @_ZN10PSScavenge37_young_generation_boundary_compressedE, align 8
  br label %_ZN10PSScavenge29set_young_generation_boundaryEPP12HeapWordImpl.exit

_ZN10PSScavenge29set_young_generation_boundaryEPP12HeapWordImpl.exit: ; preds = %14, %23
  %34 = getelementptr inbounds i8, ptr %16, i64 8
  %.sroa.0.0.copyload.i = load ptr, ptr %34, align 8
  %.sroa.2.0..sroa_idx.i = getelementptr inbounds i8, ptr %16, i64 16
  %.sroa.2.0.copyload.i = load i64, ptr %.sroa.2.0..sroa_idx.i, align 8
  store ptr %.sroa.0.0.copyload.i, ptr getelementptr inbounds (i8, ptr @_ZN10PSScavenge22_span_based_discovererE, i64 8), align 8
  store i64 %.sroa.2.0.copyload.i, ptr getelementptr inbounds (i8, ptr @_ZN10PSScavenge22_span_based_discovererE, i64 16), align 8
  %35 = tail call noundef ptr @_Z12AllocateHeapm8MEMFLAGSN17AllocFailStrategy13AllocFailEnumE(i64 noundef 88, i8 noundef zeroext 5, i32 noundef 0) #13
  %36 = load i32, ptr @ParallelGCThreads, align 4
  tail call void @_ZN18ReferenceProcessorC1EP17BoolObjectClosurejjbS1_(ptr noundef nonnull align 8 dereferenceable(88) %35, ptr noundef nonnull @_ZN10PSScavenge22_span_based_discovererE, i32 noundef %36, i32 noundef %36, i1 noundef zeroext false, ptr noundef nonnull @_ZN10PSScavenge17_is_alive_closureE) #13
  store ptr %35, ptr @_ZN10PSScavenge14_ref_processorE, align 8
  %37 = tail call noundef ptr @_ZN20ParallelScavengeHeap10card_tableEv(ptr noundef nonnull align 8 dereferenceable(264) %15) #13
  store ptr %37, ptr @_ZN10PSScavenge11_card_tableE, align 8
  %38 = tail call noundef ptr @_Z12AllocateHeapm8MEMFLAGSN17AllocFailStrategy13AllocFailEnumE(i64 noundef 40, i8 noundef zeroext 5, i32 noundef 0) #13
  tail call void @_ZN17CollectorCountersC1EPKci(ptr noundef nonnull align 8 dereferenceable(40) %38, ptr noundef nonnull @.str.22, i32 noundef 0) #13
  store ptr %38, ptr @_ZN10PSScavenge9_countersE, align 8
  ret void
}